; Function Attrs: nofree norecurse nosync nounwind memory(argmem: read) uwtable
define i32 @Str_ManMuxCountOne(ptr noundef readonly captures(none) %0) local_unnamed_addr #6 {
  %2 = load i8, ptr %0, align 1, !tbaa !69
  %.not6 = icmp eq i8 %2, 0
  br i1 %.not6, label %._crit_edge, label %.lr.ph

.lr.ph:                                           ; preds = %1, %.lr.ph
  %3 = phi i8 [ %8, %.lr.ph ], [ %2, %1 ]
  %.08 = phi i32 [ %6, %.lr.ph ], [ 0, %1 ]
  %.047 = phi ptr [ %7, %.lr.ph ], [ %0, %1 ]
  %4 = icmp eq i8 %3, 91
  %5 = zext i1 %4 to i32
  %6 = add nuw nsw i32 %.08, %5
  %7 = getelementptr inbounds nuw i8, ptr %.047, i64 1
  %8 = load i8, ptr %7, align 1, !tbaa !69
  %.not = icmp eq i8 %8, 0
  br i1 %.not, label %._crit_edge, label %.lr.ph, !llvm.loop !72

._crit_edge:                                      ; preds = %.lr.ph, %1
  %.0.lcssa = phi i32 [ 0, %1 ], [ %6, %.lr.ph ]
  ret i32 %.0.lcssa
}